Certificate:
    Data:
        Version: 3 (0x2)
        Serial Number: 2 (0x2)
    Signature Algorithm: sha1WithRSAEncryption
        Issuer: C=US, ST=South Carolina, L=Charleston, O=Home, OU=Dev, CN=ROOT CA
        Validity
            Not Before: Jan 28 18:56:12 2014 GMT
            Not After : Jan 28 18:56:12 2015 GMT
        Subject: C=US, ST=South Carolina, O=Home, OU=Dev, CN=localhost
        Subject Public Key Info:
            Public Key Algorithm: rsaEncryption
                Public-Key: (2048 bit)
                Modulus:
                    00:df:ec:d1:84:26:05:13:b0:78:49:97:31:a6:7f:
                    72:cf:86:65:b1:0f:82:1a:ae:da:43:17:3f:35:7e:
                    58:50:19:9f:db:7b:f3:e3:75:a5:ab:a6:49:09:79:
                    e1:a1:a5:a4:62:e1:4a:86:94:5d:39:30:8c:1b:5f:
                    b7:1a:c8:be:88:61:e6:8c:29:3f:84:3c:1f:a5:58:
                    15:e4:a1:d1:5f:a8:46:17:66:ed:23:a8:e5:0c:d9:
                    54:64:cd:28:c0:10:12:f0:14:6c:7a:28:b0:29:4a:
                    f8:f7:93:4f:36:7f:1a:fc:a4:20:29:52:f3:03:05:
                    a6:0b:a7:e5:31:a5:ce:08:3b:b2:dd:53:1b:97:29:
                    8e:23:83:2b:07:0a:fd:03:b5:48:02:e8:32:ae:3b:
                    64:ad:0f:3e:81:e8:6f:c3:fe:3f:d9:c4:17:de:fe:
                    df:52:80:53:e8:0d:b9:96:02:7e:69:83:45:7a:b6:
                    da:fc:9f:e2:2b:7f:a7:4f:45:ee:7d:82:d5:1f:75:
                    d0:37:09:d6:95:e9:02:08:5b:ec:2e:85:0e:96:25:
                    2d:d1:d6:17:a7:29:6c:92:0c:10:5b:c3:7b:03:07:
                    fd:8b:b9:99:df:d2:71:34:73:8e:d4:c6:c5:25:f3:
                    55:fb:be:0c:e7:8d:c8:89:83:bc:4b:ce:67:b4:ba:
                    ab:f5
                Exponent: 65537 (0x10001)
        X509v3 extensions:
            X509v3 Basic Constraints: 
                CA:FALSE
            Netscape Comment: 
                OpenSSL Generated Certificate
            X509v3 Subject Key Identifier: 
                FA:09:39:B6:12:AD:6D:E4:4E:91:56:C8:8A:D5:32:BE:B6:CA:02:4B
            X509v3 Authority Key Identifier: 
                keyid:58:60:6F:1F:5C:DB:92:79:47:FB:1F:66:5B:2A:87:FB:EF:50:38:59

    Signature Algorithm: sha1WithRSAEncryption
         b3:9e:50:83:8a:b7:7f:50:c9:5a:2b:8e:92:13:93:40:ba:ff:
         fe:31:e2:c6:8c:72:38:9b:21:2b:5d:ab:93:6d:44:2a:88:d9:
         2e:a6:54:71:2a:93:dd:17:a2:17:7e:62:90:c1:1c:82:08:18:
         d5:2e:15:eb:2e:7c:9a:72:9f:35:64:b5:c6:8f:ec:21:52:77:
         5c:dc:90:e9:49:0e:87:59:54:92:a6:56:1c:4f:89:df:2d:f6:
         70:00:15:69:87:03:29:71:15:7d:34:14:ec:22:0b:35:4b:a5:
         2f:4f:5a:50:63:7d:76:2f:1b:82:7c:26:24:b7:97:17:da:9a:
         f2:5f:d6:5a:87:fa:54:64:ff:1a:05:68:3e:e3:18:70:4a:7d:
         0d:fd:aa:4f:b4:5e:9b:ce:9e:37:7d:2b:38:2e:27:a4:fc:67:
         06:44:6a:32:ce:59:6b:ae:9b:52:51:39:d1:2c:ce:aa:c5:f6:
         b9:c8:da:97:d2:16:87:b9:86:24:09:12:a7:15:c1:cd:cd:ac:
         25:42:d6:c4:75:87:53:67:d4:4c:c7:2b:ae:9f:bc:62:a3:65:
         b7:39:f7:f8:08:4e:b9:b0:d1:db:08:3f:1d:a7:41:0c:de:e6:
         bd:95:9d:90:68:a2:6d:07:d5:6e:30:16:be:ba:ba:45:73:4e:
         a4:fc:a5:77
-----BEGIN CERTIFICATE-----
MIIDtzCCAp+gAwIBAgIBAjANBgkqhkiG9w0BAQUFADBqMQswCQYDVQQGEwJVUzEX
MBUGA1UECAwOU291dGggQ2Fyb2xpbmExEzARBgNVBAcMCkNoYXJsZXN0b24xDTAL
BgNVBAoMBEhvbWUxDDAKBgNVBAsMA0RldjEQMA4GA1UEAwwHUk9PVCBDQTAeFw0x
NDAxMjgxODU2MTJaFw0xNTAxMjgxODU2MTJaMFcxCzAJBgNVBAYTAlVTMRcwFQYD
VQQIDA5Tb3V0aCBDYXJvbGluYTENMAsGA1UECgwESG9tZTEMMAoGA1UECwwDRGV2
MRIwEAYDVQQDDAlsb2NhbGhvc3QwggEiMA0GCSqGSIb3DQEBAQUAA4IBDwAwggEK
AoIBAQDf7NGEJgUTsHhJlzGmf3LPhmWxD4IartpDFz81flhQGZ/be/PjdaWrpkkJ
eeGhpaRi4UqGlF05MIwbX7cayL6IYeaMKT+EPB+lWBXkodFfqEYXZu0jqOUM2VRk
zSjAEBLwFGx6KLApSvj3k082fxr8pCApUvMDBaYLp+Uxpc4IO7LdUxuXKY4jgysH
Cv0DtUgC6DKuO2StDz6B6G/D/j/ZxBfe/t9SgFPoDbmWAn5pg0V6ttr8n+Irf6dP
Re59gtUfddA3CdaV6QIIW+wuhQ6WJS3R1henKWySDBBbw3sDB/2LuZnf0nE0c47U
xsUl81X7vgznjciJg7xLzme0uqv1AgMBAAGjezB5MAkGA1UdEwQCMAAwLAYJYIZI
AYb4QgENBB8WHU9wZW5TU0wgR2VuZXJhdGVkIENlcnRpZmljYXRlMB0GA1UdDgQW
BBT6CTm2Eq1t5E6RVsiK1TK+tsoCSzAfBgNVHSMEGDAWgBRYYG8fXNuSeUf7H2Zb
Kof771A4WTANBgkqhkiG9w0BAQUFAAOCAQEAs55Qg4q3f1DJWiuOkhOTQLr//jHi
xoxyOJshK12rk21EKojZLqZUcSqT3ReiF35ikMEcgggY1S4V6y58mnKfNWS1xo/s
IVJ3XNyQ6UkOh1lUkqZWHE+J3y32cAAVaYcDKXEVfTQU7CILNUulL09aUGN9di8b
gnwmJLeXF9qa8l/WWof6VGT/GgVoPuMYcEp9Df2qT7Rem86eN30rOC4npPxnBkRq
Ms5Za66bUlE50SzOqsX2ucjal9IWh7mGJAkSpxXBzc2sJULWxHWHU2fUTMcrrp+8
YqNltzn3+AhOubDR2wg/HadBDN7mvZWdkGiibQfVbjAWvrq6RXNOpPyldw==
-----END CERTIFICATE-----
